(dp0
Vtudou.com
p1
(dp2
sVmovreel.com
p3
(dp4
sVputlocker.com
p5
(dp6
sVmovshare.net
p7
(dp8
sVdaclips.com
p9
(dp10
sVmovpod.net
p11
(dp12
sVyouku.com
p13
(dp14
sVveevr.com
p15
(dp16
sVfilebox.com
p17
(dp18
sVpromptfile.com
p19
(dp20
sVdivxstage.eu
p21
(dp22
sVdeditv.com
p23
(dp24
sVmovdivx.com
p25
(dp26
sVsharesix.com
p27
(dp28
sVmovpod.in
p29
(dp30
sVvideoweed.es
p31
(dp32
sVnovamov.com
p33
(dp34
sVyoutube.com
p35
(dp36
sVupafile.com
p37
(dp38
sVsharerepo.com
p39
(dp40
sVgorillavid.in
p41
(dp42
sVnowvideo.eu
p43
(dp44
sVstagevu.com
p45
(dp46
sVvidbux.com
p47
(dp48
sVvidhog.com
p49
(dp50
sVfilenuke.com
p51
(dp52
sVsockshare.com
p53
(dp54
sV56.com
p55
(dp56
sVveoh.com
p57
(dp58
sVgorillavid.com
p59
(dp60
sVmilledrive.com
p61
(dp62
sVtubemotion.com
p63
(dp64
sVvidreel.com
p65
(dp66
sVvidbox.net
p67
(dp68
sVuploadc.com
p69
(dp70
sVgoogle.com
p71
(dp72
sVveehd.com
p73
(dp74
sVgaragetv.be
p75
(dp76
sVzalaa.com
p77
(dp78
sVmrbrownee70.com
p79
(dp80
sVvideoslasher.com
p81
(dp82
sVvideoweed.com
p83
(dp84
sVnosvideo.com
p85
(dp86
sVvidxden.com
p87
(dp88
s.